Certificate:
    Data:
        Version: 3 (0x2)
        Serial Number: 4096 (0x1000)
        Signature Algorithm: sha256WithRSAEncryption
        Issuer: C=IN, ST=KA, L=Bangalore, O=QuasarStack Ltd., OU=Cyber Security, CN=quasarstack.com/emailAddress=linuxengineering@quasarstack.com
        Validity
            Not Before: Dec 13 10:50:26 2021 GMT
            Not After : Dec 11 10:50:26 2031 GMT
        Subject: C=IN, ST=KA, O=QuasarStack Ltd., OU=Openstack Engineering, CN=*.quasarstack.com/emailAddress=linuxengineering@quasarstack.com
        Subject Public Key Info:
            Public Key Algorithm: rsaEncryption
                RSA Public-Key: (2048 bit)
                Modulus:
                    00:bc:31:23:ba:30:8a:8b:f5:bc:20:47:d1:5c:6a:
                    25:42:e6:0e:2a:39:94:69:9f:46:69:2e:37:df:dc:
                    31:7f:6d:e7:61:f8:7a:0c:20:bf:b2:69:ed:a4:b0:
                    81:83:a0:90:e0:50:e1:5e:f1:ba:66:e2:ab:81:46:
                    f2:7e:70:0f:37:28:c1:91:03:58:f0:f4:b3:05:44:
                    56:e7:28:54:9f:a5:a0:3a:16:21:2f:3a:0f:d8:ac:
                    09:2f:92:d8:23:b9:0e:be:ff:7f:95:a9:af:52:ce:
                    08:d7:cb:fc:7b:8f:47:06:df:42:b4:99:66:28:a1:
                    52:d0:2a:e7:65:f2:04:66:06:10:95:c6:f9:e9:cf:
                    78:21:34:a0:f9:3d:38:e1:c4:64:93:c2:08:92:a7:
                    fa:0c:83:c8:45:be:68:25:90:3a:5e:1e:05:61:f8:
                    2f:1f:d7:e7:2d:df:b8:48:37:9e:88:6b:5f:0d:f5:
                    da:14:30:11:93:26:5b:db:9d:2b:d6:8e:e3:df:3d:
                    ab:4a:49:a1:79:8a:c1:b7:64:f2:1d:cc:5e:65:b9:
                    96:15:e9:c4:05:10:3c:a1:27:d2:2c:0e:15:f7:8c:
                    75:31:37:2e:79:13:fc:e1:5c:ad:01:1f:f1:8d:b7:
                    5f:e2:69:ca:9e:f5:46:5f:e2:31:5a:71:63:09:55:
                    48:d5
                Exponent: 65537 (0x10001)
        X509v3 extensions:
            X509v3 Basic Constraints: 
                CA:FALSE
            X509v3 Key Usage: 
                Digital Signature, Non Repudiation, Key Encipherment
            X509v3 Subject Alternative Name: 
                IP Address:192.168.20.121, IP Address:192.168.20.20, DNS:openstack.quasarstack.com, DNS:quasarsdc.quasarstack.com
    Signature Algorithm: sha256WithRSAEncryption
         aa:a9:aa:10:5b:14:d2:67:d6:73:3b:5f:80:3f:04:0c:20:ff:
         72:ac:8e:23:57:83:04:4a:0f:a0:09:26:68:e0:f2:5c:6f:90:
         94:62:a2:f3:75:89:68:53:7d:ac:5b:8d:77:5a:df:5e:7b:09:
         86:ed:bf:8f:10:ae:97:ba:8d:79:06:a9:45:25:53:1a:c2:08:
         cc:8a:68:fe:83:72:b1:db:3e:1b:0c:56:7e:ad:55:0b:1e:12:
         9b:17:46:ca:45:c1:58:37:ee:90:e7:bd:e6:f8:18:6e:2b:da:
         9b:ad:71:88:ce:44:da:e6:41:b5:dc:79:a1:14:56:7b:ac:4e:
         cd:03:69:13:6d:15:d7:3e:e9:f6:a9:ff:94:e8:62:08:ff:d3:
         93:83:bc:21:5c:68:e7:aa:58:9a:99:4e:1f:39:63:40:ae:55:
         cd:12:64:c1:2b:96:82:ff:d3:88:85:be:1f:2f:fa:e9:6d:b9:
         69:bf:11:f5:80:04:e9:04:81:47:44:df:50:28:5e:4f:6c:b7:
         1d:59:40:b8:ee:4d:17:aa:e2:36:5c:9f:79:76:05:2b:15:42:
         2d:6a:44:3b:a1:8c:de:c9:00:cb:64:80:2e:e3:a3:1a:ee:fe:
         bc:73:97:c0:ac:4a:f6:9c:c1:07:03:7d:1f:46:8e:46:f6:21:
         b7:18:60:a6:33:c5:63:eb:4d:57:8e:1a:48:73:7b:45:55:ab:
         60:65:8e:ed:07:31:77:fc:ac:c9:d1:5f:d1:15:5c:0d:b8:29:
         15:1f:a6:34:b4:dc:ef:1b:ba:4e:bc:bb:b0:c2:15:ac:7d:3a:
         c0:af:0c:88:f9:2e:1a:8f:9a:2b:ea:13:f3:71:1c:bb:b0:88:
         05:03:9e:ad:de:66:6d:3e:bb:d4:9f:0e:ea:26:33:c3:02:93:
         39:38:e2:fb:32:1b:11:36:c5:df:cc:a3:18:90:ae:55:58:67:
         a9:af:af:37:66:51:05:ba:60:98:f2:10:66:d5:1d:40:a3:ac:
         6d:ec:51:8a:44:f6:ea:06:67:d0:a6:cc:82:dd:be:86:e3:06:
         86:3b:57:dc:fd:3e:84:4b:5b:5c:8a:af:c2:4b:80:86:f8:e4:
         81:ca:93:c4:9a:99:69:eb:74:50:b8:49:19:ea:f6:52:d8:46:
         5a:0d:2a:3b:84:29:c7:09:e9:15:13:e4:c5:fa:18:57:09:6a:
         34:a7:40:66:af:d6:7a:a6:54:2d:ef:6a:02:d7:1d:a2:63:59:
         87:b2:34:b3:96:62:1b:e4:52:c2:f1:a3:95:85:82:fd:2c:a6:
         ba:be:6f:33:9b:77:8c:f5:de:4a:8a:04:79:07:0f:30:cb:71:
         a8:35:f3:78:2c:40:a7:65
-----BEGIN CERTIFICATE-----
MIIFNDCCAxygAwIBAgICEAAwDQYJKoZIhvcNAQELBQAwga0xCzAJBgNVBAYTAklO
MQswCQYDVQQIDAJLQTESMBAGA1UEBwwJQmFuZ2Fsb3JlMRkwFwYDVQQKDBBRdWFz
YXJTdGFjayBMdGQuMRcwFQYDVQQLDA5DeWJlciBTZWN1cml0eTEYMBYGA1UEAwwP
cXVhc2Fyc3RhY2suY29tMS8wLQYJKoZIhvcNAQkBFiBsaW51eGVuZ2luZWVyaW5n
QHF1YXNhcnN0YWNrLmNvbTAeFw0yMTEyMTMxMDUwMjZaFw0zMTEyMTExMDUwMjZa
MIGiMQswCQYDVQQGEwJJTjELMAkGA1UECAwCS0ExGTAXBgNVBAoMEFF1YXNhclN0
YWNrIEx0ZC4xHjAcBgNVBAsMFU9wZW5zdGFjayBFbmdpbmVlcmluZzEaMBgGA1UE
AwwRKi5xdWFzYXJzdGFjay5jb20xLzAtBgkqhkiG9w0BCQEWIGxpbnV4ZW5naW5l
ZXJpbmdAcXVhc2Fyc3RhY2suY29tMIIBIjANBgkqhkiG9w0BAQEFAAOCAQ8AMIIB
CgKCAQEAvDEjujCKi/W8IEfRXGolQuYOKjmUaZ9GaS4339wxf23nYfh6DCC/smnt
pLCBg6CQ4FDhXvG6ZuKrgUbyfnAPNyjBkQNY8PSzBURW5yhUn6WgOhYhLzoP2KwJ
L5LYI7kOvv9/lamvUs4I18v8e49HBt9CtJlmKKFS0CrnZfIEZgYQlcb56c94ITSg
+T044cRkk8IIkqf6DIPIRb5oJZA6Xh4FYfgvH9fnLd+4SDeeiGtfDfXaFDARkyZb
250r1o7j3z2rSkmheYrBt2TyHcxeZbmWFenEBRA8oSfSLA4V94x1MTcueRP84Vyt
AR/xjbdf4mnKnvVGX+IxWnFjCVVI1QIDAQABo2cwZTAJBgNVHRMEAjAAMAsGA1Ud
DwQEAwIF4DBLBgNVHREERDBChwTAqBR5hwTAqBQUghlvcGVuc3RhY2sucXVhc2Fy
c3RhY2suY29tghlxdWFzYXJzZGMucXVhc2Fyc3RhY2suY29tMA0GCSqGSIb3DQEB
CwUAA4ICAQCqqaoQWxTSZ9ZzO1+APwQMIP9yrI4jV4MESg+gCSZo4PJcb5CUYqLz
dYloU32sW413Wt9eewmG7b+PEK6Xuo15BqlFJVMawgjMimj+g3Kx2z4bDFZ+rVUL
HhKbF0bKRcFYN+6Q573m+BhuK9qbrXGIzkTa5kG13HmhFFZ7rE7NA2kTbRXXPun2
qf+U6GII/9OTg7whXGjnqliamU4fOWNArlXNEmTBK5aC/9OIhb4fL/rpbblpvxH1
gATpBIFHRN9QKF5PbLcdWUC47k0XquI2XJ95dgUrFUItakQ7oYzeyQDLZIAu46Ma
7v68c5fArEr2nMEHA30fRo5G9iG3GGCmM8Vj601XjhpIc3tFVatgZY7tBzF3/KzJ
0V/RFVwNuCkVH6Y0tNzvG7pOvLuwwhWsfTrArwyI+S4aj5or6hPzcRy7sIgFA56t
3mZtPrvUnw7qJjPDApM5OOL7MhsRNsXfzKMYkK5VWGepr683ZlEFumCY8hBm1R1A
o6xt7FGKRPbqBmfQpsyC3b6G4waGO1fc/T6ES1tciq/CS4CG+OSBypPEmplp63RQ
uEkZ6vZS2EZaDSo7hCnHCekVE+TF+hhXCWo0p0Bmr9Z6plQt72oC1x2iY1mHsjSz
lmIb5FLC8aOVhYL9LKa6vm8zm3eM9d5KigR5Bw8wy3GoNfN4LECnZQ==
-----END CERTIFICATE-----
-----BEGIN RSA PRIVATE KEY-----
MIIEpAIBAAKCAQEAvDEjujCKi/W8IEfRXGolQuYOKjmUaZ9GaS4339wxf23nYfh6
DCC/smntpLCBg6CQ4FDhXvG6ZuKrgUbyfnAPNyjBkQNY8PSzBURW5yhUn6WgOhYh
LzoP2KwJL5LYI7kOvv9/lamvUs4I18v8e49HBt9CtJlmKKFS0CrnZfIEZgYQlcb5
6c94ITSg+T044cRkk8IIkqf6DIPIRb5oJZA6Xh4FYfgvH9fnLd+4SDeeiGtfDfXa
FDARkyZb250r1o7j3z2rSkmheYrBt2TyHcxeZbmWFenEBRA8oSfSLA4V94x1MTcu
eRP84VytAR/xjbdf4mnKnvVGX+IxWnFjCVVI1QIDAQABAoIBAHTdpywmnMMRlQQO
1Uqod/81UjKSk0GMMXN7yiLwYKSboYbLgS8q3yBye6s8GRGekplaYLpPLsxZktuz
LT+rYyeD3cCp7X+k1c89gyIFf5esiPXJbE4hplmNbB7o9+QnNasSiy5rs36eiAtK
l747WYZA+vGgGTq+A+lV22EJjAW2SdG/h2MaBYaRt4k3IqICunee4XPnuU9L+gWX
KJfR/eXqaj1rwpc0gHHKyqNfwyWh/Xy9TsyQ2XcMHiWwlkXcVy9NTXJh03juSl04
Ux8Hyi2YKLZbOD+tN4yU0k66jAfYAGIC0a9pkqccTH5BkPtQTty/amni/KyrhoLk
rH9228ECgYEA3eXAY4PRU4S0l0Le956vaTpBJSRatJQ9Hz8GWhAZKQpJIJiSS899
XdGfNBLXjlmg7FFBM60BoUpiYNrxQ2zRCgbV/Lut8y90DOguSQFSO5wBpB2c7vL0
owRonGnbpjMkPS9t3T0cz/XiwqyzGJ9aqMcTauuF+Mf5ig5Dxm7leAkCgYEA2R1K
jXmSWX70ESQ95h8025Ts1azrhqsBRUp+v/P1qq8Z2KXIXif2pltDUbWeOFSzgcde
cF7n2XHudQwG7YSVn+blB2o3p4doS4oEP52PQDrqXaSXENwtvvcI3PF7TEM+QvB3
1eTTRTiTcZD8uPIts3BxSep6ZUJpIWNul/xBBW0CgYEArfDEn/2boBl9qrjLqVWl
8RmuKVxXEgjF5PF1nDHUVzxt2HRg8bZjcqC4aIyAlmCh6b1EHCr5BSMW/Q+DYjQx
pOd45JWGJQREtz1l0uqLOJjxHGHuO80NgaAaFMpSWPTr6l58g5m9NTNtHudbuOhp
m7X5/a1EJqEzdkn6TNlvXWkCgYBWrW76FDLtL9XYkhN0L7k2gLochDBzTwnu09LO
Z2MIhWdYKrdXf7TkrUKu+Eb2Tjpr8WAulHUTRnzglbCeWnQxpkiBMVKOu2xT3AHe
M9Tg26R9RhxZSs2ok48iRfXneGD+8GmnJveBhxi2GiAK5gSAwr83tzit/FlkTwH0
A20h8QKBgQDbcsIO5T3YgZz01bYmu65xS9wN+EG0nNOj1mQzt60s3qaSSoh4hfkd
x82paiNiG8D7zxTOhanA7vLk+Un1AllANArWYqsl+YtqpJZSao0O177LSQL0B49T
IUMqhPJWgAVI2gW+rfGlWnPKUaWOGhM8xYB4q0VKBeSNWzayEBdh6w==
-----END RSA PRIVATE KEY-----
