Certificate:
    Data:
        Version: 3 (0x2)
        Serial Number: 4096 (0x1000)
        Signature Algorithm: sha256WithRSAEncryption
        Issuer: C=IN, ST=KA, L=Bangalore, O=QuasarStack Ltd., OU=Cyber Security, CN=quasar.com/emailAddress=linuxengineering@quasar.com
        Validity
            Not Before: Dec 12 19:05:32 2021 GMT
            Not After : Dec 10 19:05:32 2031 GMT
        Subject: C=IN, ST=KA, O=QuasarStack Ltd., OU=Openstack Engineering, CN=*.quasar.com/emailAddress=linuxengineering@quasar.com
        Subject Public Key Info:
            Public Key Algorithm: rsaEncryption
                RSA Public-Key: (2048 bit)
                Modulus:
                    00:c7:7f:0e:95:34:b9:07:d1:b3:f4:0c:f3:20:62:
                    12:87:cb:9f:6b:92:8f:d4:47:e1:fd:05:00:f0:9a:
                    94:a5:54:34:83:22:70:8a:94:b3:fd:de:db:6f:ee:
                    81:e7:da:82:40:7e:d4:4e:9f:1d:16:93:6a:55:33:
                    14:90:9a:5b:2e:99:7e:2e:09:8a:24:f3:11:a4:f2:
                    f5:f4:82:0b:35:40:af:71:31:dc:35:47:7a:c1:f7:
                    a5:1f:0e:b3:34:4b:b8:da:67:c6:35:e0:f5:f3:8c:
                    38:1b:e6:bc:48:89:83:42:f5:29:13:7f:af:3b:72:
                    05:ce:7e:41:32:d3:03:b6:2e:57:bc:46:b2:35:d5:
                    64:df:6e:8f:f1:60:b4:bb:65:7f:7f:23:db:ba:4f:
                    60:90:c0:b9:d2:2e:87:fa:8b:f4:11:de:a3:b1:61:
                    55:6c:36:5a:75:45:41:59:f4:c2:6e:ef:bf:8a:6b:
                    a3:ef:2e:f3:cb:9c:47:2b:0e:4a:d8:86:26:f5:05:
                    3a:8a:6c:36:f1:21:07:d1:62:8a:2c:7b:e7:20:75:
                    f3:0e:57:be:cb:cb:0c:e4:4b:ca:b2:0d:d3:08:9a:
                    5e:c6:09:f9:8c:33:4e:d2:02:f2:34:9a:99:66:bc:
                    8e:d4:04:48:eb:45:06:cd:77:e9:fd:71:43:df:28:
                    8a:b9
                Exponent: 65537 (0x10001)
        X509v3 extensions:
            X509v3 Basic Constraints: 
                CA:FALSE
            X509v3 Key Usage: 
                Digital Signature, Non Repudiation, Key Encipherment
            X509v3 Subject Alternative Name: 
                IP Address:192.168.20.20, DNS:quasarsdc.quasarstack.com
    Signature Algorithm: sha256WithRSAEncryption
         4c:4c:b5:fb:8f:03:8c:e3:a9:4a:36:bf:ab:2c:62:8c:dd:eb:
         8a:b9:b8:dd:a0:ba:e6:0a:40:35:bf:be:09:ca:71:86:72:a0:
         65:e2:84:cb:75:6a:62:d9:c5:99:2f:3d:19:f8:21:b0:e7:80:
         3c:21:0e:65:94:8f:2e:3d:96:fa:9e:14:cd:1c:27:be:b0:4a:
         c0:95:e3:0e:6b:e6:8d:fd:93:31:c3:31:99:a4:23:ae:98:96:
         c5:1f:bc:f5:6f:67:c9:16:f5:2a:0a:c2:a1:7a:cb:c1:dc:bf:
         c1:8c:c8:52:2e:58:a9:ed:ea:57:d4:6d:70:55:28:8e:86:5f:
         77:94:0a:bb:d2:11:0c:50:2f:a4:e2:ba:b2:e7:9f:3a:7c:dd:
         e5:7c:86:4f:23:39:35:cb:3c:52:dd:c2:b7:0e:62:7f:e5:e9:
         fd:53:9d:b8:84:b3:49:92:c7:cd:11:8d:d3:dd:22:5e:1b:77:
         44:00:4f:1e:59:2c:86:f3:8b:ee:62:6e:02:ce:8d:7f:2e:9c:
         fa:8d:e8:95:e3:1b:89:17:53:e5:8f:8b:0c:27:22:e0:2b:8b:
         1f:5e:91:e0:da:0f:ce:2f:0e:01:38:a9:a9:53:d7:87:ca:ba:
         1b:08:9a:c5:27:fa:16:9d:91:2f:0e:8d:99:94:7b:22:91:88:
         c7:a2:5c:1f:76:0a:d2:a4:81:b2:ac:4d:fd:43:39:ed:b6:b8:
         df:fb:62:d6:e7:a3:5a:ee:3f:99:00:0b:40:54:ba:0b:88:13:
         85:32:ec:f3:ba:f0:ad:a7:de:19:fd:4a:7c:c4:ff:dc:e4:b3:
         99:54:44:57:ec:fc:2b:7f:1f:45:9c:1e:76:04:85:16:e2:49:
         f0:e8:22:9a:ea:46:49:c2:77:b1:45:51:f9:79:7a:c0:b0:3c:
         dc:c7:1a:f4:75:b6:b2:a3:f2:59:c9:98:0d:b5:5f:ac:2b:8c:
         bd:48:87:06:98:08:25:da:e6:11:e7:80:96:03:f9:c4:04:74:
         86:25:39:d6:e8:2f:df:82:09:9a:d5:98:a0:6f:1b:5a:7f:b8:
         f6:30:10:02:7f:4d:c0:71:03:6a:f2:b0:dc:8a:55:c8:e5:f1:
         97:42:e1:5b:cf:9e:94:3d:85:0d:c6:f8:c1:09:8c:56:37:7b:
         b4:cb:fe:29:e0:f6:61:2f:63:eb:b2:c3:c6:9e:ca:0a:02:af:
         05:87:f0:fa:dc:03:3d:e2:29:27:09:dd:1a:d7:b6:8b:d2:38:
         3e:e8:ef:db:aa:3c:9d:02:44:a1:c9:7c:60:c1:eb:1e:9a:75:
         aa:ad:e2:79:fb:63:12:2b:29:90:f1:c4:dc:c3:ff:29:cd:1b:
         a7:85:36:c2:2b:20:4c:45
-----BEGIN CERTIFICATE-----
MIIE/zCCAuegAwIBAgICEAAwDQYJKoZIhvcNAQELBQAwgaMxCzAJBgNVBAYTAklO
MQswCQYDVQQIDAJLQTESMBAGA1UEBwwJQmFuZ2Fsb3JlMRkwFwYDVQQKDBBRdWFz
YXJTdGFjayBMdGQuMRcwFQYDVQQLDA5DeWJlciBTZWN1cml0eTETMBEGA1UEAwwK
cXVhc2FyLmNvbTEqMCgGCSqGSIb3DQEJARYbbGludXhlbmdpbmVlcmluZ0BxdWFz
YXIuY29tMB4XDTIxMTIxMjE5MDUzMloXDTMxMTIxMDE5MDUzMlowgZgxCzAJBgNV
BAYTAklOMQswCQYDVQQIDAJLQTEZMBcGA1UECgwQUXVhc2FyU3RhY2sgTHRkLjEe
MBwGA1UECwwVT3BlbnN0YWNrIEVuZ2luZWVyaW5nMRUwEwYDVQQDDAwqLnF1YXNh
ci5jb20xKjAoBgkqhkiG9w0BCQEWG2xpbnV4ZW5naW5lZXJpbmdAcXVhc2FyLmNv
bTCCASIwDQYJKoZIhvcNAQEBBQADggEPADCCAQoCggEBAMd/DpU0uQfRs/QM8yBi
EofLn2uSj9RH4f0FAPCalKVUNIMicIqUs/3e22/ugefagkB+1E6fHRaTalUzFJCa
Wy6Zfi4JiiTzEaTy9fSCCzVAr3Ex3DVHesH3pR8OszRLuNpnxjXg9fOMOBvmvEiJ
g0L1KRN/rztyBc5+QTLTA7YuV7xGsjXVZN9uj/FgtLtlf38j27pPYJDAudIuh/qL
9BHeo7FhVWw2WnVFQVn0wm7vv4pro+8u88ucRysOStiGJvUFOopsNvEhB9Fiiix7
5yB18w5XvsvLDORLyrIN0wiaXsYJ+YwzTtIC8jSamWa8jtQESOtFBs136f1xQ98o
irkCAwEAAaNGMEQwCQYDVR0TBAIwADALBgNVHQ8EBAMCBeAwKgYDVR0RBCMwIYcE
wKgUFIIZcXVhc2Fyc2RjLnF1YXNhcnN0YWNrLmNvbTANBgkqhkiG9w0BAQsFAAOC
AgEATEy1+48DjOOpSja/qyxijN3rirm43aC65gpANb++CcpxhnKgZeKEy3VqYtnF
mS89GfghsOeAPCEOZZSPLj2W+p4UzRwnvrBKwJXjDmvmjf2TMcMxmaQjrpiWxR+8
9W9nyRb1KgrCoXrLwdy/wYzIUi5Yqe3qV9RtcFUojoZfd5QKu9IRDFAvpOK6suef
Onzd5XyGTyM5Ncs8Ut3Ctw5if+Xp/VOduISzSZLHzRGN090iXht3RABPHlkshvOL
7mJuAs6Nfy6c+o3oleMbiRdT5Y+LDCci4CuLH16R4NoPzi8OATipqVPXh8q6Gwia
xSf6Fp2RLw6NmZR7IpGIx6JcH3YK0qSBsqxN/UM57ba43/ti1uejWu4/mQALQFS6
C4gThTLs87rwrafeGf1KfMT/3OSzmVREV+z8K38fRZwedgSFFuJJ8OgimupGScJ3
sUVR+Xl6wLA83Mca9HW2sqPyWcmYDbVfrCuMvUiHBpgIJdrmEeeAlgP5xAR0hiU5
1ugv34IJmtWYoG8bWn+49jAQAn9NwHEDavKw3IpVyOXxl0LhW8+elD2FDcb4wQmM
Vjd7tMv+KeD2YS9j67LDxp7KCgKvBYfw+twDPeIpJwndGte2i9I4Pujv26o8nQJE
ocl8YMHrHpp1qq3ieftjEispkPHE3MP/Kc0bp4U2wisgTEU=
-----END CERTIFICATE-----
